target datalayout = "e-m:e-p270:32:32-p271:32:32-p272:64:64-i64:64-i128:128-f80:128-n8:16:32:64-S128"
target triple = "x86_64-pc-linux-gnu"

%struct._archiveHandle = type { %struct.Archive, i32, ptr, ptr, i64, i64, i32, %struct.sqlparseInfo, i64, i32, ptr, i64, i64, i64, ptr, ptr, ptr, ptr, ptr, ptr, ptr, ptr, ptr, ptr, ptr, ptr, ptr, ptr, ptr, ptr, ptr, ptr, ptr, ptr, ptr, ptr, ptr, ptr, ptr, ptr, ptr, ptr, ptr, ptr, i32, i32, i8, i32, i8, i32, ptr, ptr, ptr, ptr, i32, i32, ptr, ptr, ptr, %struct.pg_compress_specification, i8, i32, i32, ptr, ptr, ptr, ptr, ptr, i32, ptr, i64, i64, i32, i32, i32, i32, ptr, ptr }
%struct.Archive = type { ptr, ptr, i32, ptr, i32, i8, i32, i32, i32, ptr, i32, i8, ptr, ptr, i8, i32, ptr }
%struct.sqlparseInfo = type { i32, i8, ptr }
%struct.pg_compress_specification = type { i32, i32, i32, i32, i8, ptr }
%struct.lclContext = type { ptr, i32, i64 }
%struct._tocEntry = type { ptr, ptr, %struct.CatalogId, i32, i32, i8, ptr, ptr, ptr, ptr, i8, ptr, ptr, ptr, ptr, ptr, ptr, i32, ptr, ptr, ptr, i64, i32, i8, ptr, ptr, i32, ptr, i32, ptr, i32 }
%struct.CatalogId = type { i32, i32 }
%struct.lclTocEntry = type { i32, i64 }

@.str.18 = private unnamed_addr constant [35 x i8] c"could not write to output file: %m\00", align 1
@.str.19 = private unnamed_addr constant [54 x i8] c"could not determine seek position in archive file: %m\00", align 1

; Function Attrs: nounwind uwtable
define internal i32 @_WriteByte(ptr noundef %0, i32 noundef %1) #0 {
  %3 = alloca ptr, align 8
  %4 = alloca i32, align 4
  store ptr %0, ptr %3, align 8
  store i32 %1, ptr %4, align 4
  %5 = load i32, ptr %4, align 4
  %6 = load ptr, ptr %3, align 8
  %7 = getelementptr inbounds nuw %struct._archiveHandle, ptr %6, i32 0, i32 51
  %8 = load ptr, ptr %7, align 8
  %9 = call i32 @fputc(i32 noundef %5, ptr noundef %8)
  %10 = icmp eq i32 %9, -1
  br i1 %10, label %11, label %16

11:                                               ; preds = %2
  br label %12

12:                                               ; preds = %11
  br label %13

13:                                               ; preds = %12
  call void (i32, i32, ptr, ...) @pg_log_generic(i32 noundef 4, i32 noundef 0, ptr noundef @.str.18)
  call void @exit_nicely(i32 noundef 1) #9
  unreachable

14:                                               ; No predecessors!
  br label %15

15:                                               ; preds = %14
  br label %16

16:                                               ; preds = %15, %2
  ret i32 1
}

; Function Attrs: nounwind uwtable
define internal i64 @_getFilePos(ptr noundef %0, ptr noundef %1) #0 {
  %3 = alloca ptr, align 8
  %4 = alloca ptr, align 8
  %5 = alloca i64, align 8
  store ptr %0, ptr %3, align 8
  store ptr %1, ptr %4, align 8
  call void @llvm.lifetime.start.p0(i64 8, ptr %5) #7
  %6 = load ptr, ptr %3, align 8
  %7 = getelementptr inbounds nuw %struct._archiveHandle, ptr %6, i32 0, i32 51
  %8 = load ptr, ptr %7, align 8
  %9 = call i64 @ftello(ptr noundef %8)
  store i64 %9, ptr %5, align 8
  %10 = load i64, ptr %5, align 8
  %11 = icmp slt i64 %10, 0
  br i1 %11, label %12, label %22

12:                                               ; preds = %2
  %13 = load ptr, ptr %4, align 8
  %14 = getelementptr inbounds nuw %struct.lclContext, ptr %13, i32 0, i32 1
  %15 = load i32, ptr %14, align 8
  %16 = icmp ne i32 %15, 0
  br i1 %16, label %17, label %21

17:                                               ; preds = %12
  br label %18

18:                                               ; preds = %17
  call void (i32, i32, ptr, ...) @pg_log_generic(i32 noundef 4, i32 noundef 0, ptr noundef @.str.19)
  call void @exit_nicely(i32 noundef 1) #9
  unreachable

19:                                               ; No predecessors!
  br label %20

20:                                               ; preds = %19
  br label %21

21:                                               ; preds = %20, %12
  br label %22

22:                                               ; preds = %21, %2
  %23 = load i64, ptr %5, align 8
  call void @llvm.lifetime.end.p0(i64 8, ptr %5) #7
  ret i64 %23
}

; Function Attrs: nounwind uwtable
define internal void @_StartData(ptr noundef %0, ptr noundef %1) #0 {
  %3 = alloca ptr, align 8
  %4 = alloca ptr, align 8
  %5 = alloca ptr, align 8
  %6 = alloca ptr, align 8
  store ptr %0, ptr %3, align 8
  store ptr %1, ptr %4, align 8
  call void @llvm.lifetime.start.p0(i64 8, ptr %5) #7
  %7 = load ptr, ptr %3, align 8
  %8 = getelementptr inbounds nuw %struct._archiveHandle, ptr %7, i32 0, i32 63
  %9 = load ptr, ptr %8, align 8
  store ptr %9, ptr %5, align 8
  call void @llvm.lifetime.start.p0(i64 8, ptr %6) #7
  %10 = load ptr, ptr %4, align 8
  %11 = getelementptr inbounds nuw %struct._tocEntry, ptr %10, i32 0, i32 20
  %12 = load ptr, ptr %11, align 8
  store ptr %12, ptr %6, align 8
  %13 = load ptr, ptr %3, align 8
  %14 = load ptr, ptr %5, align 8
  %15 = call i64 @_getFilePos(ptr noundef %13, ptr noundef %14)
  %16 = load ptr, ptr %6, align 8
  %17 = getelementptr inbounds nuw %struct.lclTocEntry, ptr %16, i32 0, i32 1
  store i64 %15, ptr %17, align 8
  %18 = load ptr, ptr %6, align 8
  %19 = getelementptr inbounds nuw %struct.lclTocEntry, ptr %18, i32 0, i32 1
  %20 = load i64, ptr %19, align 8
  %21 = icmp sge i64 %20, 0
  br i1 %21, label %22, label %25

22:                                               ; preds = %2
  %23 = load ptr, ptr %6, align 8
  %24 = getelementptr inbounds nuw %struct.lclTocEntry, ptr %23, i32 0, i32 0
  store i32 2, ptr %24, align 8
  br label %25

25:                                               ; preds = %22, %2
  %26 = load ptr, ptr %3, align 8
  %27 = call i32 @_WriteByte(ptr noundef %26, i32 noundef 1)
  %28 = load ptr, ptr %3, align 8
  %29 = load ptr, ptr %4, align 8
  %30 = getelementptr inbounds nuw %struct._tocEntry, ptr %29, i32 0, i32 3
  %31 = load i32, ptr %30, align 8
  %32 = call i64 @WriteInt(ptr noundef %28, i32 noundef %31)
  %33 = load ptr, ptr %3, align 8
  %34 = getelementptr inbounds nuw %struct._archiveHandle, ptr %33, i32 0, i32 59
  %35 = call ptr @AllocateCompressor(ptr noundef byval(%struct.pg_compress_specification) align 8 %34, ptr noundef null, ptr noundef @_CustomWriteFunc)
  %36 = load ptr, ptr %5, align 8
  %37 = getelementptr inbounds nuw %struct.lclContext, ptr %36, i32 0, i32 0
  store ptr %35, ptr %37, align 8
  call void @llvm.lifetime.end.p0(i64 8, ptr %6) #7
  call void @llvm.lifetime.end.p0(i64 8, ptr %5) #7
  ret void
}